ARM GAS  C:\Users\wenzelj\AppData\Local\Temp\ccRnfNKb.s 			page 1


   1              		.syntax unified
   2              		.cpu cortex-m3
   3              		.fpu softvfp
   4              		.eabi_attribute 20, 1
   5              		.eabi_attribute 21, 1
   6              		.eabi_attribute 23, 3
   7              		.eabi_attribute 24, 1
   8              		.eabi_attribute 25, 1
   9              		.eabi_attribute 26, 1
  10              		.eabi_attribute 30, 1
  11              		.eabi_attribute 34, 1
  12              		.eabi_attribute 18, 4
  13              		.thumb
  14              		.syntax unified
  15              		.file	"main.c"
  16              		.text
  17              	.Ltext0:
  18              		.cfi_sections	.debug_frame
  19              		.syntax unified
  20              		.global _printf_float
  21              		.thumb
  22              		.syntax unified
  23              		.section	.text.main,"ax",%progbits
  24              		.align	2
  25              		.global	main
  26              		.thumb
  27              		.thumb_func
  28              		.type	main, %function
  29              	main:
  30              	.LFB64:
  31              		.file 1 "main.c"
   1:main.c        **** /*******************************************************************************
   2:main.c        **** * File Name: main.c
   3:main.c        **** *
   4:main.c        **** * Version: 2.0
   5:main.c        **** *
   6:main.c        **** * Description:
   7:main.c        **** *   The component is enumerated as a Virtual Com port. Receives data from the 
   8:main.c        **** *   hyper terminal, then sends back the received data.
   9:main.c        **** *   For PSoC3/PSoC5LP, the LCD shows the line settings.
  10:main.c        **** *
  11:main.c        **** * Related Document:
  12:main.c        **** *  Universal Serial Bus Specification Revision 2.0
  13:main.c        **** *  Universal Serial Bus Class Definitions for Communications Devices
  14:main.c        **** *  Revision 1.2
  15:main.c        **** *
  16:main.c        **** ********************************************************************************
  17:main.c        **** * Copyright 2015, Cypress Semiconductor Corporation. All rights reserved.
  18:main.c        **** * This software is owned by Cypress Semiconductor Corporation and is protected
  19:main.c        **** * by and subject to worldwide patent and copyright laws and treaties.
  20:main.c        **** * Therefore, you may use this software only as provided in the license agreement
  21:main.c        **** * accompanying the software package from which you obtained this software.
  22:main.c        **** * CYPRESS AND ITS SUPPLIERS MAKE NO WARRANTY OF ANY KIND, EXPRESS OR IMPLIED,
  23:main.c        **** * WITH REGARD TO THIS SOFTWARE, INCLUDING, BUT NOT LIMITED TO, NONINFRINGEMENT,
  24:main.c        **** * IMPLIED WARRANTIES OF MERCHANTABILITY AND FITNESS FOR A PARTICULAR PURPOSE.
  25:main.c        **** *******************************************************************************/
  26:main.c        **** 
ARM GAS  C:\Users\wenzelj\AppData\Local\Temp\ccRnfNKb.s 			page 2


  27:main.c        **** #include <project.h>
  28:main.c        **** #include "stdio.h"
  29:main.c        **** 
  30:main.c        **** #if defined (__GNUC__)
  31:main.c        ****     /* Add an explicit reference to the floating point printf library */
  32:main.c        ****     /* to allow usage of the floating point conversion specifiers. */
  33:main.c        ****     /* This is not linked in by default with the newlib-nano library. */
  34:main.c        ****     asm (".global _printf_float");
  35:main.c        **** #endif
  36:main.c        **** 
  37:main.c        **** #define USBFS_DEVICE    (0u)
  38:main.c        **** 
  39:main.c        **** /* The buffer size is equal to the maximum packet size of the IN and OUT bulk
  40:main.c        **** * endpoints.
  41:main.c        **** */
  42:main.c        **** #define USB_BUFFER_SIZE (64u)
  43:main.c        **** #define CHAR_BUFFER_SIZE (8u)
  44:main.c        **** #define LINE_STR_LENGTH     (20u)
  45:main.c        **** 
  46:main.c        **** char8* parity[] = {"None", "Odd", "Even", "Mark", "Space"};
  47:main.c        **** char8* stop[]   = {"1", "1.5", "2"};
  48:main.c        **** 
  49:main.c        **** 
  50:main.c        **** /*******************************************************************************
  51:main.c        **** * Function Name: main
  52:main.c        **** ********************************************************************************
  53:main.c        **** *
  54:main.c        **** * Summary:
  55:main.c        **** *  The main function performs the following actions:
  56:main.c        **** *   1. Waits until VBUS becomes valid and starts the USBFS component which is
  57:main.c        **** *      enumerated as virtual Com port.
  58:main.c        **** *   2. Waits until the device is enumerated by the host.
  59:main.c        **** *   3. Waits for data coming from the hyper terminal and sends it back.
  60:main.c        **** *   4. PSoC3/PSoC5LP: the LCD shows the line settings.
  61:main.c        **** *
  62:main.c        **** * Parameters:
  63:main.c        **** *  None.
  64:main.c        **** *
  65:main.c        **** * Return:
  66:main.c        **** *  None.
  67:main.c        **** *
  68:main.c        **** *******************************************************************************/
  69:main.c        **** int main()
  70:main.c        **** {
  32              		.loc 1 70 0
  33              		.cfi_startproc
  34              		@ args = 0, pretend = 0, frame = 88
  35              		@ frame_needed = 0, uses_anonymous_args = 0
  36 0000 2DE9F041 		push	{r4, r5, r6, r7, r8, lr}
  37              		.cfi_def_cfa_offset 24
  38              		.cfi_offset 4, -24
  39              		.cfi_offset 5, -20
  40              		.cfi_offset 6, -16
  41              		.cfi_offset 7, -12
  42              		.cfi_offset 8, -8
  43              		.cfi_offset 14, -4
  44 0004 98B0     		sub	sp, sp, #96
ARM GAS  C:\Users\wenzelj\AppData\Local\Temp\ccRnfNKb.s 			page 3


  45              		.cfi_def_cfa_offset 120
  71:main.c        ****     uint16 count;
  72:main.c        ****     uint8 buffer[USB_BUFFER_SIZE];
  73:main.c        ****     uint8 char_buffer[CHAR_BUFFER_SIZE];
  74:main.c        ****     
  75:main.c        **** #if (CY_PSOC3 || CY_PSOC5LP)
  76:main.c        ****     uint8 state;
  77:main.c        ****     char8 lineStr[LINE_STR_LENGTH];
  78:main.c        ****     
  79:main.c        ****     LCD_Start();
  46              		.loc 1 79 0
  47 0006 FFF7FEFF 		bl	LCD_Start
  48              	.LVL0:
  80:main.c        **** #endif /* (CY_PSOC3 || CY_PSOC5LP) */
  81:main.c        ****     
  82:main.c        ****     CyGlobalIntEnable;
  49              		.loc 1 82 0
  50              		.syntax unified
  51              	@ 82 "main.c" 1
  52 000a 62B6     		CPSIE   i
  53              	@ 0 "" 2
  83:main.c        **** 
  84:main.c        ****     /* Start USBFS operation with 3-V operation. */
  85:main.c        ****     USB_Start(USBFS_DEVICE, USB_3V_OPERATION);
  54              		.loc 1 85 0
  55              		.thumb
  56              		.syntax unified
  57 000c 0021     		movs	r1, #0
  58 000e 0846     		mov	r0, r1
  59 0010 FFF7FEFF 		bl	USB_Start
  60              	.LVL1:
  61              	.L3:
  86:main.c        ****     
  87:main.c        ****     for(;;)
  88:main.c        ****     {
  89:main.c        ****         /* Host can send double SET_INTERFACE request. */
  90:main.c        ****         if (0u != USB_IsConfigurationChanged())
  62              		.loc 1 90 0
  63 0014 FFF7FEFF 		bl	USB_IsConfigurationChanged
  64              	.LVL2:
  65 0018 20B1     		cbz	r0, .L2
  91:main.c        ****         {
  92:main.c        ****             /* Initialize IN endpoints when device is configured. */
  93:main.c        ****             if (0u != USB_GetConfiguration())
  66              		.loc 1 93 0
  67 001a FFF7FEFF 		bl	USB_GetConfiguration
  68              	.LVL3:
  69 001e 08B1     		cbz	r0, .L2
  94:main.c        ****             {
  95:main.c        ****                 /* Enumeration is done, enable OUT endpoint to receive data 
  96:main.c        ****                  * from host. */
  97:main.c        ****                 USB_CDC_Init();
  70              		.loc 1 97 0
  71 0020 FFF7FEFF 		bl	USB_CDC_Init
  72              	.LVL4:
  73              	.L2:
  98:main.c        ****             }
ARM GAS  C:\Users\wenzelj\AppData\Local\Temp\ccRnfNKb.s 			page 4


  99:main.c        ****         }
 100:main.c        **** 
 101:main.c        ****         /* Service USB CDC when device is configured. */
 102:main.c        ****         if (0u != USB_GetConfiguration())
  74              		.loc 1 102 0
  75 0024 FFF7FEFF 		bl	USB_GetConfiguration
  76              	.LVL5:
  77 0028 0028     		cmp	r0, #0
  78 002a F3D0     		beq	.L3
 103:main.c        ****         {
 104:main.c        ****             /* Check for input data from host. */
 105:main.c        ****             if (0u != USB_DataIsReady())
  79              		.loc 1 105 0
  80 002c FFF7FEFF 		bl	USB_DataIsReady
  81              	.LVL6:
  82 0030 B0B1     		cbz	r0, .L4
 106:main.c        ****             {
 107:main.c        ****                 /* Read received data and re-enable OUT endpoint. */
 108:main.c        ****                 count = USB_GetAll(buffer);
  83              		.loc 1 108 0
  84 0032 08A8     		add	r0, sp, #32
  85 0034 FFF7FEFF 		bl	USB_GetAll
  86              	.LVL7:
 109:main.c        **** 
 110:main.c        ****                 if (0u != count)
  87              		.loc 1 110 0
  88 0038 0446     		mov	r4, r0
  89 003a 88B1     		cbz	r0, .L4
  90              	.LVL8:
  91              	.L5:
 111:main.c        ****                 {
 112:main.c        ****                     /* Wait until component is ready to send data to host. */
 113:main.c        ****                     while (0u == USB_CDCIsReady())
  92              		.loc 1 113 0 discriminator 1
  93 003c FFF7FEFF 		bl	USB_CDCIsReady
  94              	.LVL9:
  95 0040 0028     		cmp	r0, #0
  96 0042 FBD0     		beq	.L5
  97              	.LVL10:
 114:main.c        ****                     {
 115:main.c        ****                     }
 116:main.c        ****                     //Get the characters individually, place in cha
 117:main.c        ****                     for(uint8 i=0; i>count; i++){
 118:main.c        ****                         uint8 cha = buffer[i];
 119:main.c        ****                         //For each possible bit, if it is the first bit it is always a 1
 120:main.c        ****                         for(uint8 j=0; j<8; i++){
 121:main.c        ****                             if(j==0){
 122:main.c        ****                                 char_buffer[j] = 1;    
 123:main.c        ****                             }else{
 124:main.c        ****                                 //Otherwise, make a mask based on our position in the for loop and 
 125:main.c        ****                                 char_buffer[j] = cha & (1 << (7-j));    
 126:main.c        ****                             }
 127:main.c        ****                         }
 128:main.c        ****                         for(uint8 k=0; k<8; k++){
 129:main.c        ****                             //Transmit bits with proper timing
 130:main.c        ****                             TX_Write(char_buffer[k]);
 131:main.c        ****                             CyDelayUs(500);
ARM GAS  C:\Users\wenzelj\AppData\Local\Temp\ccRnfNKb.s 			page 5


 132:main.c        ****                             TX_Write(0);
 133:main.c        ****                         }
 134:main.c        ****                     }
 135:main.c        ****                     
 136:main.c        ****                     /* Send data back to host. */
 137:main.c        ****                     USB_PutData(buffer, count);
  98              		.loc 1 137 0 discriminator 1
  99 0044 2146     		mov	r1, r4
 100 0046 08A8     		add	r0, sp, #32
 101 0048 FFF7FEFF 		bl	USB_PutData
 102              	.LVL11:
 138:main.c        **** 
 139:main.c        ****                     /* If the last sent packet is exactly the maximum packet 
 140:main.c        ****                     *  size, it is followed by a zero-length packet to assure
 141:main.c        ****                     *  that the end of the segment is properly identified by 
 142:main.c        ****                     *  the terminal.
 143:main.c        ****                     */
 144:main.c        ****                     if (USB_BUFFER_SIZE == count)
 103              		.loc 1 144 0 discriminator 1
 104 004c 402C     		cmp	r4, #64
 105 004e 07D1     		bne	.L4
 106              	.L6:
 145:main.c        ****                     {
 146:main.c        ****                         /* Wait until component is ready to send data to PC. */
 147:main.c        ****                         while (0u == USB_CDCIsReady())
 107              		.loc 1 147 0 discriminator 1
 108 0050 FFF7FEFF 		bl	USB_CDCIsReady
 109              	.LVL12:
 110 0054 0028     		cmp	r0, #0
 111 0056 FBD0     		beq	.L6
 148:main.c        ****                         {
 149:main.c        ****                         }
 150:main.c        **** 
 151:main.c        ****                         /* Send zero-length packet to PC. */
 152:main.c        ****                         USB_PutData(NULL, 0u);
 112              		.loc 1 152 0
 113 0058 0021     		movs	r1, #0
 114 005a 0846     		mov	r0, r1
 115 005c FFF7FEFF 		bl	USB_PutData
 116              	.LVL13:
 117              	.L4:
 153:main.c        ****                     }
 154:main.c        ****                 }
 155:main.c        ****             }
 156:main.c        **** 
 157:main.c        **** 
 158:main.c        ****         #if (CY_PSOC3 || CY_PSOC5LP)
 159:main.c        ****             /* Check for Line settings change. */
 160:main.c        ****             state = USB_IsLineChanged();
 118              		.loc 1 160 0
 119 0060 FFF7FEFF 		bl	USB_IsLineChanged
 120              	.LVL14:
 161:main.c        ****             if (0u != state)
 121              		.loc 1 161 0
 122 0064 0446     		mov	r4, r0
 123 0066 0028     		cmp	r0, #0
 124 0068 D4D0     		beq	.L3
ARM GAS  C:\Users\wenzelj\AppData\Local\Temp\ccRnfNKb.s 			page 6


 162:main.c        ****             {
 163:main.c        ****                 /* Output on LCD Line Coding settings. */
 164:main.c        ****                 if (0u != (state & USB_LINE_CODING_CHANGED))
 125              		.loc 1 164 0
 126 006a 10F0010F 		tst	r0, #1
 127 006e 28D0     		beq	.L8
 165:main.c        ****                 {                  
 166:main.c        ****                     /* Get string to output. */
 167:main.c        ****                     sprintf(lineStr,"BR:%4ld %d%c%s", USB_GetDTERate(),\
 128              		.loc 1 167 0
 129 0070 FFF7FEFF 		bl	USB_GetDTERate
 130              	.LVL15:
 131 0074 0646     		mov	r6, r0
 168:main.c        ****                                    (uint16) USB_GetDataBits(),\
 132              		.loc 1 168 0
 133 0076 FFF7FEFF 		bl	USB_GetDataBits
 134              	.LVL16:
 135 007a 0746     		mov	r7, r0
 169:main.c        ****                                    parity[(uint16) USB_GetParityType()][0],\
 136              		.loc 1 169 0
 137 007c FFF7FEFF 		bl	USB_GetParityType
 138              	.LVL17:
 139 0080 224D     		ldr	r5, .L16
 140 0082 55F82030 		ldr	r3, [r5, r0, lsl #2]
 141 0086 93F80080 		ldrb	r8, [r3]	@ zero_extendqisi2
 170:main.c        ****                                    stop[(uint16) USB_GetCharFormat()]);
 142              		.loc 1 170 0
 143 008a FFF7FEFF 		bl	USB_GetCharFormat
 144              	.LVL18:
 167:main.c        ****                                    (uint16) USB_GetDataBits(),\
 145              		.loc 1 167 0
 146 008e 05EB8000 		add	r0, r5, r0, lsl #2
 147 0092 4369     		ldr	r3, [r0, #20]
 148 0094 0193     		str	r3, [sp, #4]
 149 0096 CDF80080 		str	r8, [sp]
 150 009a 3B46     		mov	r3, r7
 151 009c 3246     		mov	r2, r6
 152 009e 1C49     		ldr	r1, .L16+4
 153 00a0 03A8     		add	r0, sp, #12
 154 00a2 FFF7FEFF 		bl	sprintf
 155              	.LVL19:
 171:main.c        **** 
 172:main.c        ****                     /* Clear LCD line. */
 173:main.c        ****                     LCD_Position(0u, 0u);
 156              		.loc 1 173 0
 157 00a6 0021     		movs	r1, #0
 158 00a8 0846     		mov	r0, r1
 159 00aa FFF7FEFF 		bl	LCD_Position
 160              	.LVL20:
 174:main.c        ****                     LCD_PrintString("                    ");
 161              		.loc 1 174 0
 162 00ae 1948     		ldr	r0, .L16+8
 163 00b0 FFF7FEFF 		bl	LCD_PrintString
 164              	.LVL21:
 175:main.c        **** 
 176:main.c        ****                     /* Output string on LCD. */
 177:main.c        ****                     LCD_Position(0u, 0u);
ARM GAS  C:\Users\wenzelj\AppData\Local\Temp\ccRnfNKb.s 			page 7


 165              		.loc 1 177 0
 166 00b4 0021     		movs	r1, #0
 167 00b6 0846     		mov	r0, r1
 168 00b8 FFF7FEFF 		bl	LCD_Position
 169              	.LVL22:
 178:main.c        ****                     LCD_PrintString(lineStr);
 170              		.loc 1 178 0
 171 00bc 03A8     		add	r0, sp, #12
 172 00be FFF7FEFF 		bl	LCD_PrintString
 173              	.LVL23:
 174              	.L8:
 179:main.c        ****                 }
 180:main.c        **** 
 181:main.c        ****                 /* Output on LCD Line Control settings. */
 182:main.c        ****                 if (0u != (state & USB_LINE_CONTROL_CHANGED))
 175              		.loc 1 182 0
 176 00c2 14F0020F 		tst	r4, #2
 177 00c6 A5D0     		beq	.L3
 183:main.c        ****                 {                   
 184:main.c        ****                     /* Get string to output. */
 185:main.c        ****                     state = USB_GetLineControl();
 178              		.loc 1 185 0
 179 00c8 FFF7FEFF 		bl	USB_GetLineControl
 180              	.LVL24:
 181 00cc C0B2     		uxtb	r0, r0
 182              	.LVL25:
 186:main.c        ****                     sprintf(lineStr,"DTR:%s,RTS:%s",  (0u != (state & USB_LINE_CONTROL_DTR)) ? "ON"
 183              		.loc 1 186 0
 184 00ce 10F0010F 		tst	r0, #1
 185 00d2 01D0     		beq	.L13
 186 00d4 104A     		ldr	r2, .L16+12
 187 00d6 00E0     		b	.L10
 188              	.L13:
 189 00d8 104A     		ldr	r2, .L16+16
 190              	.L10:
 191              		.loc 1 186 0 is_stmt 0 discriminator 4
 192 00da 10F0020F 		tst	r0, #2
 193 00de 01D0     		beq	.L14
 194              		.loc 1 186 0
 195 00e0 0D4B     		ldr	r3, .L16+12
 196 00e2 00E0     		b	.L11
 197              	.L14:
 198 00e4 0D4B     		ldr	r3, .L16+16
 199              	.L11:
 200              		.loc 1 186 0 discriminator 8
 201 00e6 0E49     		ldr	r1, .L16+20
 202 00e8 03A8     		add	r0, sp, #12
 203              	.LVL26:
 204 00ea FFF7FEFF 		bl	sprintf
 205              	.LVL27:
 187:main.c        ****                                                       (0u != (state & USB_LINE_CONTROL_RTS)) ? "ON"
 188:main.c        **** 
 189:main.c        ****                     /* Clear LCD line. */
 190:main.c        ****                     LCD_Position(1u, 0u);
 206              		.loc 1 190 0 is_stmt 1 discriminator 8
 207 00ee 0021     		movs	r1, #0
 208 00f0 0120     		movs	r0, #1
ARM GAS  C:\Users\wenzelj\AppData\Local\Temp\ccRnfNKb.s 			page 8


 209 00f2 FFF7FEFF 		bl	LCD_Position
 210              	.LVL28:
 191:main.c        ****                     LCD_PrintString("                    ");
 211              		.loc 1 191 0 discriminator 8
 212 00f6 0748     		ldr	r0, .L16+8
 213 00f8 FFF7FEFF 		bl	LCD_PrintString
 214              	.LVL29:
 192:main.c        **** 
 193:main.c        ****                     /* Output string on LCD. */
 194:main.c        ****                     LCD_Position(1u, 0u);
 215              		.loc 1 194 0 discriminator 8
 216 00fc 0021     		movs	r1, #0
 217 00fe 0120     		movs	r0, #1
 218 0100 FFF7FEFF 		bl	LCD_Position
 219              	.LVL30:
 195:main.c        ****                     LCD_PrintString(lineStr);
 220              		.loc 1 195 0 discriminator 8
 221 0104 03A8     		add	r0, sp, #12
 222 0106 FFF7FEFF 		bl	LCD_PrintString
 223              	.LVL31:
 224 010a 83E7     		b	.L3
 225              	.L17:
 226              		.align	2
 227              	.L16:
 228 010c 00000000 		.word	.LANCHOR0
 229 0110 08000000 		.word	.LC2
 230 0114 18000000 		.word	.LC3
 231 0118 00000000 		.word	.LC0
 232 011c 04000000 		.word	.LC1
 233 0120 30000000 		.word	.LC4
 234              		.cfi_endproc
 235              	.LFE64:
 236              		.size	main, .-main
 237              		.global	stop
 238              		.global	parity
 239              		.data
 240              		.align	2
 241              		.set	.LANCHOR0,. + 0
 242              		.type	parity, %object
 243              		.size	parity, 20
 244              	parity:
 245 0000 4C000000 		.word	.LC8
 246 0004 54000000 		.word	.LC9
 247 0008 58000000 		.word	.LC10
 248 000c 60000000 		.word	.LC11
 249 0010 68000000 		.word	.LC12
 250              		.type	stop, %object
 251              		.size	stop, 12
 252              	stop:
 253 0014 40000000 		.word	.LC5
 254 0018 44000000 		.word	.LC6
 255 001c 48000000 		.word	.LC7
 256              		.section	.rodata.str1.4,"aMS",%progbits,1
 257              		.align	2
 258              	.LC0:
 259 0000 4F4E00   		.ascii	"ON\000"
 260 0003 00       		.space	1
ARM GAS  C:\Users\wenzelj\AppData\Local\Temp\ccRnfNKb.s 			page 9


 261              	.LC1:
 262 0004 4F464600 		.ascii	"OFF\000"
 263              	.LC2:
 264 0008 42523A25 		.ascii	"BR:%4ld %d%c%s\000"
 264      346C6420 
 264      25642563 
 264      257300
 265 0017 00       		.space	1
 266              	.LC3:
 267 0018 20202020 		.ascii	"                    \000"
 267      20202020 
 267      20202020 
 267      20202020 
 267      20202020 
 268 002d 000000   		.space	3
 269              	.LC4:
 270 0030 4454523A 		.ascii	"DTR:%s,RTS:%s\000"
 270      25732C52 
 270      54533A25 
 270      7300
 271 003e 0000     		.space	2
 272              	.LC5:
 273 0040 3100     		.ascii	"1\000"
 274 0042 0000     		.space	2
 275              	.LC6:
 276 0044 312E3500 		.ascii	"1.5\000"
 277              	.LC7:
 278 0048 3200     		.ascii	"2\000"
 279 004a 0000     		.space	2
 280              	.LC8:
 281 004c 4E6F6E65 		.ascii	"None\000"
 281      00
 282 0051 000000   		.space	3
 283              	.LC9:
 284 0054 4F646400 		.ascii	"Odd\000"
 285              	.LC10:
 286 0058 4576656E 		.ascii	"Even\000"
 286      00
 287 005d 000000   		.space	3
 288              	.LC11:
 289 0060 4D61726B 		.ascii	"Mark\000"
 289      00
 290 0065 000000   		.space	3
 291              	.LC12:
 292 0068 53706163 		.ascii	"Space\000"
 292      6500
 293              		.text
 294              	.Letext0:
 295              		.file 2 "c:\\program files (x86)\\cypress\\psoc creator\\4.1\\psoc creator\\import\\gnu\\arm\\5.4.
 296              		.file 3 "c:\\program files (x86)\\cypress\\psoc creator\\4.1\\psoc creator\\import\\gnu\\arm\\5.4.
 297              		.file 4 "Generated_Source\\PSoC5/cytypes.h"
 298              		.file 5 "Generated_Source\\PSoC5/core_cm3.h"
 299              		.file 6 "Generated_Source\\PSoC5/LCD.h"
 300              		.file 7 "Generated_Source\\PSoC5/USB.h"
 301              		.file 8 "Generated_Source\\PSoC5/USB_cdc.h"
 302              		.file 9 "c:\\program files (x86)\\cypress\\psoc creator\\4.1\\psoc creator\\import\\gnu\\arm\\5.4.